target datalayout = "e-m:e-p270:32:32-p271:32:32-p272:64:64-i64:64-i128:128-f80:128-n8:16:32:64-S128"
target triple = "x86_64-pc-linux-gnu"

%struct.avifROData = type { ptr, i64 }
%struct.avifROStream = type { ptr, i64, i64, ptr, ptr }
%struct.avifProperty = type { [4 x i8], %union.anon }
%union.anon = type { %struct.avifColourInformationBox, [24 x i8] }
%struct.avifColourInformationBox = type { i32, i64, i64, i32, i16, i16, i16, i32 }
%struct.avifPixelInformationProperty = type { [4 x i8], i8 }

@.str.83 = private unnamed_addr constant [10 x i8] c"Box[pixi]\00", align 1
@.str.84 = private unnamed_addr constant [48 x i8] c"Box[pixi] contains unsupported plane count [%u]\00", align 1

; Function Attrs: nounwind uwtable
define internal i32 @avifParsePixelInformationProperty(ptr noundef %0, ptr noundef %1, i64 noundef %2, ptr noundef %3) #0 {
  %5 = alloca i32, align 4
  %6 = alloca ptr, align 8
  %7 = alloca ptr, align 8
  %8 = alloca i64, align 8
  %9 = alloca ptr, align 8
  %10 = alloca %struct.avifROStream, align 8
  %11 = alloca %struct.avifROData, align 8
  %12 = alloca ptr, align 8
  %13 = alloca i8, align 1
  store ptr %0, ptr %6, align 8
  store ptr %1, ptr %7, align 8
  store i64 %2, ptr %8, align 8
  store ptr %3, ptr %9, align 8
  %14 = load ptr, ptr %7, align 8
  %15 = getelementptr inbounds nuw %struct.avifROData, ptr %11, i32 0, i32 0
  store ptr %14, ptr %15, align 8
  %16 = load i64, ptr %8, align 8
  %17 = getelementptr inbounds nuw %struct.avifROData, ptr %11, i32 0, i32 1
  store i64 %16, ptr %17, align 8
  %18 = load ptr, ptr %9, align 8
  call void @avifROStreamStart(ptr noundef %10, ptr noundef %11, ptr noundef %18, ptr noundef @.str.83)
  br label %19

19:                                               ; preds = %4
  %20 = call i32 @avifROStreamReadAndEnforceVersion(ptr noundef %10, i8 noundef zeroext 0)
  %21 = icmp ne i32 %20, 0
  br i1 %21, label %23, label %22

22:                                               ; preds = %19
  store i32 0, ptr %5, align 4
  br label %71

23:                                               ; preds = %19
  br label %24

24:                                               ; preds = %23
  %25 = load ptr, ptr %6, align 8
  %26 = getelementptr inbounds nuw %struct.avifProperty, ptr %25, i32 0, i32 1
  store ptr %26, ptr %12, align 8
  br label %27

27:                                               ; preds = %24
  %28 = load ptr, ptr %12, align 8
  %29 = getelementptr inbounds nuw %struct.avifPixelInformationProperty, ptr %28, i32 0, i32 1
  %30 = call i32 @avifROStreamRead(ptr noundef %10, ptr noundef %29, i64 noundef 1)
  %31 = icmp ne i32 %30, 0
  br i1 %31, label %33, label %32

32:                                               ; preds = %27
  store i32 0, ptr %5, align 4
  br label %71

33:                                               ; preds = %27
  br label %34

34:                                               ; preds = %33
  %35 = load ptr, ptr %12, align 8
  %36 = getelementptr inbounds nuw %struct.avifPixelInformationProperty, ptr %35, i32 0, i32 1
  %37 = load i8, ptr %36, align 1
  %38 = zext i8 %37 to i32
  %39 = icmp sgt i32 %38, 4
  br i1 %39, label %40, label %46

40:                                               ; preds = %34
  %41 = load ptr, ptr %9, align 8
  %42 = load ptr, ptr %12, align 8
  %43 = getelementptr inbounds nuw %struct.avifPixelInformationProperty, ptr %42, i32 0, i32 1
  %44 = load i8, ptr %43, align 1
  %45 = zext i8 %44 to i32
  call void (ptr, ptr, ...) @avifDiagnosticsPrintf(ptr noundef %41, ptr noundef @.str.84, i32 noundef %45)
  store i32 0, ptr %5, align 4
  br label %71

46:                                               ; preds = %34
  store i8 0, ptr %13, align 1
  br label %47

47:                                               ; preds = %67, %46
  %48 = load i8, ptr %13, align 1
  %49 = zext i8 %48 to i32
  %50 = load ptr, ptr %12, align 8
  %51 = getelementptr inbounds nuw %struct.avifPixelInformationProperty, ptr %50, i32 0, i32 1
  %52 = load i8, ptr %51, align 1
  %53 = zext i8 %52 to i32
  %54 = icmp slt i32 %49, %53
  br i1 %54, label %55, label %70

55:                                               ; preds = %47
  br label %56

56:                                               ; preds = %55
  %57 = load ptr, ptr %12, align 8
  %58 = getelementptr inbounds nuw %struct.avifPixelInformationProperty, ptr %57, i32 0, i32 0
  %59 = load i8, ptr %13, align 1
  %60 = zext i8 %59 to i64
  %61 = getelementptr inbounds [4 x i8], ptr %58, i64 0, i64 %60
  %62 = call i32 @avifROStreamRead(ptr noundef %10, ptr noundef %61, i64 noundef 1)
  %63 = icmp ne i32 %62, 0
  br i1 %63, label %65, label %64

64:                                               ; preds = %56
  store i32 0, ptr %5, align 4
  br label %71

65:                                               ; preds = %56
  br label %66

66:                                               ; preds = %65
  br label %67

67:                                               ; preds = %66
  %68 = load i8, ptr %13, align 1
  %69 = add i8 %68, 1
  store i8 %69, ptr %13, align 1
  br label %47, !llvm.loop !75

70:                                               ; preds = %47
  store i32 1, ptr %5, align 4
  br label %71

71:                                               ; preds = %70, %64, %40, %32, %22
  %72 = load i32, ptr %5, align 4
  ret i32 %72
}