; Function Attrs: nounwind uwtable
define internal fastcc range(i32 0, 2) i32 @avifParsePixelInformationProperty(ptr noundef nonnull %0, ptr noundef %1, i64 noundef %2, ptr noundef %3) unnamed_addr #0 {
  %5 = alloca %struct.avifROStream, align 8
  %6 = alloca %struct.avifROData, align 8
  store ptr %1, ptr %6, align 8
  %7 = getelementptr inbounds nuw i8, ptr %6, i64 8
  store i64 %2, ptr %7, align 8
  call void @avifROStreamStart(ptr noundef nonnull %5, ptr noundef nonnull %6, ptr noundef %3, ptr noundef nonnull @.str.83) #13
  %8 = call i32 @avifROStreamReadAndEnforceVersion(ptr noundef nonnull %5, i8 noundef zeroext 0) #13
  %.not = icmp eq i32 %8, 0
  br i1 %.not, label %.loopexit, label %9

9:                                                ; preds = %4
  %10 = getelementptr inbounds nuw i8, ptr %0, i64 8
  %11 = getelementptr inbounds nuw i8, ptr %0, i64 12
  %12 = call i32 @avifROStreamRead(ptr noundef nonnull %5, ptr noundef nonnull %11, i64 noundef 1) #13
  %.not15 = icmp eq i32 %12, 0
  br i1 %.not15, label %.loopexit, label %13

13:                                               ; preds = %9
  %14 = load i8, ptr %11, align 1
  %15 = icmp ugt i8 %14, 4
  br i1 %15, label %16, label %.preheader

.preheader:                                       ; preds = %13
  %.not20 = icmp eq i8 %14, 0
  br i1 %.not20, label %.loopexit, label %.lr.ph

16:                                               ; preds = %13
  %17 = zext i8 %14 to i32
  call void (ptr, ptr, ...) @avifDiagnosticsPrintf(ptr noundef %3, ptr noundef nonnull @.str.84, i32 noundef %17) #13
  br label %.loopexit

18:                                               ; preds = %.lr.ph
  %indvars.iv.next = add nuw nsw i64 %indvars.iv, 1
  %19 = load i8, ptr %11, align 1
  %20 = zext i8 %19 to i64
  %21 = icmp samesign ult i64 %indvars.iv.next, %20
  br i1 %21, label %.lr.ph, label %.loopexit, !llvm.loop !88

.lr.ph:                                           ; preds = %.preheader, %18
  %indvars.iv = phi i64 [ %indvars.iv.next, %18 ], [ 0, %.preheader ]
  %22 = getelementptr inbounds nuw [4 x i8], ptr %10, i64 0, i64 %indvars.iv
  %23 = call i32 @avifROStreamRead(ptr noundef nonnull %5, ptr noundef nonnull %22, i64 noundef 1) #13
  %.not16 = icmp eq i32 %23, 0
  br i1 %.not16, label %.loopexit, label %18

.loopexit:                                        ; preds = %.lr.ph, %18, %.preheader, %9, %4, %16
  %.013 = phi i32 [ 0, %16 ], [ 0, %4 ], [ 0, %9 ], [ 1, %.preheader ], [ 0, %.lr.ph ], [ 1, %18 ]
  ret i32 %.013
}